(lp0
S'poi'
p1
aS'from_this_person_to_poi'
p2
aS'total_stock_value'
p3
aS'total_payments'
p4
aS'expenses'
p5
aS'other'
p6
aS'restricted_stock'
p7
aS'salary'
p8
aS'bonus'
p9
aS'bonus_by_salary'
p10
aS'email_fraction_from_poi'
p11
a.